(dp1
S'shapeNode0'
p2
(dp3
S'knots'
p4
(lp5
F-2
aF-1
aF0
aF1
aF2
aF3
aF4
aF5
aF6
aF7
aF8
aF9
aF10
asS'periodic'
p6
I01
sS'degree'
p7
I3
sS'spans'
p8
I8
sS'cvs'
p9
(lp10
(F0.78361162489122449
F4.7982373409884731e-17
F-0.7836116248912246
tp11
a(F6.7857323231109122e-17
F6.7857323231109122e-17
F-1.1081941875543877
tp12
a(F-0.78361162489122449
F4.7982373409884719e-17
F-0.78361162489122438
tp13
a(F-1.1081941875543881
F3.5177356190060272e-33
F-5.7448982375248304e-17
tp14
a(F-0.78361162489122449
F-4.7982373409884725e-17
F0.78361162489122449
tp15
a(F-1.1100856969603225e-16
F-6.7857323231109171e-17
F1.1081941875543884
tp16
a(F0.78361162489122449
F-4.7982373409884719e-17
F0.78361162489122438
tp17
a(F1.1081941875543881
F-9.2536792101100989e-33
F1.511240500779959e-16
tp18
a(F0.78361162489122449
F4.7982373409884731e-17
F-0.7836116248912246
tp19
a(F6.7857323231109122e-17
F6.7857323231109122e-17
F-1.1081941875543877
tp20
a(F-0.78361162489122449
F4.7982373409884719e-17
F-0.78361162489122438
tp21
ass.