(dp1
S'shapeNode3'
p2
(dp3
S'knots'
p4
(lp5
F0
aF1
aF2
aF3
aF4
asS'periodic'
p6
I00
sS'degree'
p7
I1
sS'spans'
p8
I4
sS'cvs'
p9
(lp10
(F0
F0
F0.50443322327657925
tp11
a(F-0.50443322327657925
F0
F0
tp12
a(F0
F0
F-0.50443322327657925
tp13
a(F0.50443322327657925
F0
F0
tp14
a(F0
F0
F0.50443322327657925
tp15
assS'shapeNode2'
p16
(dp17
g4
(lp18
F0
aF1
aF2
aF3
aF4
asg6
I00
sg7
I1
sg8
I4
sg9
(lp19
(F-1.5820829541292396e-16
F-5.5511151231257827e-17
F0.50381840425356761
tp20
a(F-1.5820829541292396e-16
F0.50381840425356739
F5.5511151231257827e-17
tp21
a(F1.5820829541292396e-16
F5.5511151231257827e-17
F-0.50381840425356761
tp22
a(F1.5820829541292396e-16
F-0.50381840425356739
F-5.5511151231257827e-17
tp23
a(F-1.5820829541292396e-16
F-5.5511151231257827e-17
F0.50381840425356761
tp24
assS'shapeNode1'
p25
(dp26
g4
(lp27
F0
aF1
aF2
aF3
aF4
asg6
I00
sg7
I1
sg8
I4
sg9
(lp28
(F-0.50381840425356739
F0
F-1.1865622155969297e-16
tp29
a(F5.5511151231257827e-17
F0.50381840425356739
F-1.1865622155969297e-16
tp30
a(F0.50381840425356739
F0
F1.1865622155969297e-16
tp31
a(F-5.5511151231257827e-17
F-0.50381840425356739
F1.1865622155969297e-16
tp32
a(F-0.50381840425356739
F0
F-1.1865622155969297e-16
tp33
assS'shapeNode0'
p34
(dp35
g4
(lp36
F0
aF1
aF2
aF3
aF4
asg6
I00
sg7
I1
sg8
I4
sg9
(lp37
(F-1.5820829541292396e-16
F-5.5511151231257827e-17
F0.50381840425356761
tp38
a(F-1.5820829541292396e-16
F0.50381840425356739
F5.5511151231257827e-17
tp39
a(F1.5820829541292396e-16
F5.5511151231257827e-17
F-0.50381840425356761
tp40
a(F1.5820829541292396e-16
F-0.50381840425356739
F-5.5511151231257827e-17
tp41
a(F-1.5820829541292396e-16
F-5.5511151231257827e-17
F0.50381840425356761
tp42
ass.