(dp1
S'shapeNode2'
p2
(dp3
S'knots'
p4
(lp5
F-2
aF-1
aF0
aF1
aF2
aF3
aF4
aF5
aF6
aF7
aF8
aF9
aF10
asS'periodic'
p6
I01
sS'degree'
p7
I3
sS'spans'
p8
I8
sS'cvs'
p9
(lp10
(F-0.24462978956459625
F0.24462978956459633
F-3.9339470538445662e-17
tp11
a(F-0.3501069324242323
F-0.016164440353790954
F-5.5634412772046631e-17
tp12
a(F-0.2446297895645963
F0
F-3.9339470538445644e-17
tp13
a(F-9.4752841082570182e-17
F0
F-2.8840977824039855e-33
tp14
a(F0.24462978956459619
F0
F3.9339470538445656e-17
tp15
a(F0.35010693242423246
F-0.01616444035379112
F5.5634412772046668e-17
tp16
a(F0.2446297895645963
F0.24462978956459619
F3.9339470538445644e-17
tp17
a(F1.2399655234419605e-16
F0.3459587661627283
F7.5868452264464147e-33
tp18
a(F-0.24462978956459625
F0.24462978956459633
F-3.9339470538445662e-17
tp19
a(F-0.3501069324242323
F-0.016164440353790954
F-5.5634412772046631e-17
tp20
a(F-0.2446297895645963
F0
F-3.9339470538445644e-17
tp21
assS'shapeNode1'
p22
(dp23
g4
(lp24
F-2
aF-1
aF0
aF1
aF2
aF3
aF4
aF5
aF6
aF7
aF8
aF9
aF10
asg6
I01
sg7
I3
sg8
I8
sg9
(lp25
(F3.9339470538445656e-17
F0.24462978956459627
F-0.2446297895645963
tp26
a(F-2.2684594874558452e-17
F-0.016164440353791016
F-0.34595876616272814
tp27
a(F-6.929797941508299e-17
F0
F-0.24462978956459625
tp28
a(F-7.6818277552954296e-17
F0
F-1.7934563529615877e-17
tp29
a(F-3.9339470538445656e-17
F0
F0.24462978956459627
tp30
a(F2.0191138540705042e-17
F-0.016164440353791058
F0.34595876616272836
tp31
a(F6.929797941508299e-17
F0.24462978956459627
F0.24462978956459625
tp32
a(F7.6818277552954296e-17
F0.3459587661627283
F4.7178274791241754e-17
tp33
a(F3.9339470538445656e-17
F0.24462978956459627
F-0.2446297895645963
tp34
a(F-2.2684594874558452e-17
F-0.016164440353791016
F-0.34595876616272814
tp35
a(F-6.929797941508299e-17
F0
F-0.24462978956459625
tp36
assS'shapeNode0'
p37
(dp38
g4
(lp39
F-2
aF-1
aF0
aF1
aF2
aF3
aF4
aF5
aF6
aF7
aF8
aF9
aF10
asg6
I01
sg7
I3
sg8
I8
sg9
(lp40
(F0.24462978956459627
F1.4979254438318673e-17
F-0.2446297895645963
tp41
a(F2.1183864780907634e-17
F2.1183864780907634e-17
F-0.34595876616272814
tp42
a(F-0.24462978956459627
F1.497925443831867e-17
F-0.24462978956459625
tp43
a(F-0.3459587661627283
F1.0981752910324471e-33
F-1.7934563529615877e-17
tp44
a(F-0.24462978956459627
F-1.497925443831867e-17
F0.24462978956459627
tp45
a(F-3.4654926218554754e-17
F-2.1183864780907649e-17
F0.34595876616272836
tp46
a(F0.24462978956459627
F-1.497925443831867e-17
F0.24462978956459625
tp47
a(F0.3459587661627283
F-2.8888361606194237e-33
F4.7178274791241754e-17
tp48
a(F0.24462978956459627
F1.4979254438318673e-17
F-0.2446297895645963
tp49
a(F2.1183864780907634e-17
F2.1183864780907634e-17
F-0.34595876616272814
tp50
a(F-0.24462978956459627
F1.497925443831867e-17
F-0.24462978956459625
tp51
ass.