(dp1
S'shapeNode0'
p2
(dp3
S'knots'
p4
(lp5
F0
aF1
aF2
aF3
aF4
aF5
aF6
aF7
aF8
aF9
aF10
aF11
aF12
aF13
aF14
aF15
aF16
aF17
aF18
aF19
aF20
aF21
aF22
aF23
aF24
asS'periodic'
p6
I00
sS'degree'
p7
I1
sS'spans'
p8
I24
sS'cvs'
p9
(lp10
(F-2.0374809630659927
F0
F-2.0374809630659922
tp11
a(F-3
F0
F-1
tp12
a(F-3
F0
F-2
tp13
a(F-5
F0
F0
tp14
a(F-3
F0
F2
tp15
a(F-3
F0
F1
tp16
a(F-2.0374809630659927
F0
F2.0374809630659922
tp17
a(F-1
F0
F3
tp18
a(F-3
F0
F3
tp19
a(F0
F0
F5
tp20
a(F3
F0
F3
tp21
a(F1
F0
F3
tp22
a(F2.037480963065994
F0
F2.0374809630659922
tp23
a(F3
F0
F1
tp24
a(F3
F0
F2
tp25
a(F5
F0
F0
tp26
a(F3
F0
F-2
tp27
a(F3
F0
F-1
tp28
a(F2.037480963065994
F0
F-2.0374809630659922
tp29
a(F1
F0
F-3
tp30
a(F3
F0
F-3
tp31
a(F0
F0
F-5
tp32
a(F-3
F0
F-3
tp33
a(F-1
F0
F-3
tp34
a(F-2.0374809630659927
F0
F-2.0374809630659922
tp35
ass.