(dp1
S'shapeNode0'
p2
(dp3
S'knots'
p4
(lp5
F0
aF0
aF0
aF1
aF2
aF3
aF4
aF5
aF6
aF7
aF8
aF9
aF9
aF9
asS'periodic'
p6
I00
sS'degree'
p7
I3
sS'spans'
p8
I9
sS'cvs'
p9
(lp10
(F-0.40967233803376163
F0.011135963145863792
F0.55487409540871657
tp11
a(F-0.36686202216799318
F0.31893086807491594
F0.55658249710947616
tp12
a(F0.36686202216799024
F0.31893086807491594
F0.55658249710947616
tp13
a(F0.40967233803376163
F0.011135963145863792
F0.55487409540871657
tp14
a(F0.40967233803376163
F0.011135963145863792
F0.55487409540871657
tp15
a(F0.40967233803376163
F0.011135963145863792
F-0.54658730816305856
tp16
a(F0.40967233803376163
F0.011135963145863792
F-0.54658730816305856
tp17
a(F0.36686202216799024
F0.33991926688555901
F-0.55658249710947616
tp18
a(F-0.36686202216799318
F0.33991926688555901
F-0.55658249710947616
tp19
a(F-0.40967233803376163
F0.011135963145863792
F-0.54658730816305856
tp20
a(F-0.40967233803376163
F0.011135963145863792
F-0.54658730816305856
tp21
a(F-0.40967233803376163
F0.011135963145863792
F0.55487409540871657
tp22
ass.