(dp1
S'shapeNode3'
p2
(dp3
S'knots'
p4
(lp5
F-2
aF-1
aF0
aF1
aF2
aF3
aF4
aF5
aF6
aF7
aF8
aF9
aF10
asS'periodic'
p6
I01
sS'degree'
p7
I3
sS'spans'
p8
I8
sS'cvs'
p9
(lp10
(F-0.051289592717658615
F0.67712959802117456
F-8.2479955741956709e-18
tp11
a(F-0.072534437629905121
F0.62584000530351591
F-1.1664427203420778e-17
tp12
a(F-0.051289592717658629
F0.57455041258585726
F-8.2479955741956679e-18
tp13
a(F-1.9866078602347737e-17
F0.55330556767361072
F-6.0468596600882239e-34
tp14
a(F0.051289592717658608
F0.57455041258585726
F8.2479955741956694e-18
tp15
a(F0.072534437629905163
F0.62584000530351591
F1.1664427203420784e-17
tp16
a(F0.051289592717658629
F0.67712959802117456
F8.2479955741956679e-18
tp17
a(F2.5997376196280136e-17
F0.6983744429334211
F1.5906738192798777e-33
tp18
a(F-0.051289592717658615
F0.67712959802117456
F-8.2479955741956709e-18
tp19
a(F-0.072534437629905121
F0.62584000530351591
F-1.1664427203420778e-17
tp20
a(F-0.051289592717658629
F0.57455041258585726
F-8.2479955741956679e-18
tp21
assS'shapeNode2'
p22
(dp23
g4
(lp24
F-2
aF-1
aF0
aF1
aF2
aF3
aF4
aF5
aF6
aF7
aF8
aF9
aF10
asg6
I01
sg7
I3
sg8
I8
sg9
(lp25
(F8.2479955741956694e-18
F0.67712959802117456
F-0.051289592717658629
tp26
a(F-4.4414533435708309e-18
F0.62584000530351591
F-0.072534437629905121
tp27
a(F-1.4529159129320872e-17
F0.57455041258585726
F-0.051289592717658615
tp28
a(F-1.6105880546991613e-17
F0.55330556767361072
F-3.7601980553561227e-18
tp29
a(F-8.2479955741956694e-18
F0.57455041258585726
F0.051289592717658622
tp30
a(F4.4414533435708333e-18
F0.62584000530351591
F0.072534437629905163
tp31
a(F1.4529159129320872e-17
F0.67712959802117456
F0.051289592717658615
tp32
a(F1.6105880546991613e-17
F0.6983744429334211
F9.8914956492885197e-18
tp33
a(F8.2479955741956694e-18
F0.67712959802117456
F-0.051289592717658629
tp34
a(F-4.4414533435708309e-18
F0.62584000530351591
F-0.072534437629905121
tp35
a(F-1.4529159129320872e-17
F0.57455041258585726
F-0.051289592717658615
tp36
assS'shapeNode1'
p37
(dp38
g4
(lp39
F-2
aF-1
aF0
aF1
aF2
aF3
aF4
aF5
aF6
aF7
aF8
aF9
aF10
asg6
I01
sg7
I3
sg8
I8
sg9
(lp40
(F0.051289592717658622
F0.62584000530351591
F-0.051289592717658629
tp41
a(F4.4414533435708317e-18
F0.62584000530351591
F-0.072534437629905121
tp42
a(F-0.051289592717658622
F0.62584000530351591
F-0.051289592717658615
tp43
a(F-0.072534437629905149
F0.62584000530351591
F-3.7601980553561227e-18
tp44
a(F-0.051289592717658622
F0.62584000530351591
F0.051289592717658622
tp45
a(F-7.2658242259609904e-18
F0.62584000530351591
F0.072534437629905163
tp46
a(F0.051289592717658622
F0.62584000530351591
F0.051289592717658615
tp47
a(F0.072534437629905149
F0.62584000530351591
F9.8914956492885197e-18
tp48
a(F0.051289592717658622
F0.62584000530351591
F-0.051289592717658629
tp49
a(F4.4414533435708317e-18
F0.62584000530351591
F-0.072534437629905121
tp50
a(F-0.051289592717658622
F0.62584000530351591
F-0.051289592717658615
tp51
assS'shapeNode0'
p52
(dp53
g4
(lp54
F0
aF1
asg6
I00
sg7
I1
sg8
I1
sg9
(lp55
(F0
F0
F0
tp56
a(F0
F0.5597606718082021
F0
tp57
ass.