(dp1
S'shapeNode2'
p2
(dp3
S'knots'
p4
(lp5
F-2
aF-1
aF0
aF1
aF2
aF3
aF4
aF5
aF6
aF7
aF8
aF9
aF10
asS'periodic'
p6
I01
sS'degree'
p7
I3
sS'spans'
p8
I8
sS'cvs'
p9
(lp10
(F0.39180581244561224
F2.3991186704942366e-17
F-0.3918058124456123
tp11
a(F3.3928661615554561e-17
F3.3928661615554561e-17
F-0.55409709377719385
tp12
a(F-0.39180581244561224
F2.399118670494236e-17
F-0.39180581244561219
tp13
a(F-0.55409709377719407
F1.7588678095030136e-33
F-2.8724491187624152e-17
tp14
a(F-0.39180581244561224
F-2.3991186704942363e-17
F0.39180581244561224
tp15
a(F-5.5504284848016124e-17
F-3.3928661615554586e-17
F0.55409709377719418
tp16
a(F0.39180581244561224
F-2.399118670494236e-17
F0.39180581244561219
tp17
a(F0.55409709377719407
F-4.6268396050550495e-33
F7.556202503899795e-17
tp18
a(F0.39180581244561224
F2.3991186704942366e-17
F-0.3918058124456123
tp19
a(F3.3928661615554561e-17
F3.3928661615554561e-17
F-0.55409709377719385
tp20
a(F-0.39180581244561224
F2.399118670494236e-17
F-0.39180581244561219
tp21
assS'shapeNode1'
p22
(dp23
g4
(lp24
F-2
aF-1
aF0
aF1
aF2
aF3
aF4
aF5
aF6
aF7
aF8
aF9
aF10
asg6
I01
sg7
I3
sg8
I8
sg9
(lp25
(F6.3007180126874523e-17
F0.39180581244561224
F-0.3918058124456123
tp26
a(F-3.3928661615554555e-17
F3.3928661615554567e-17
F-0.55409709377719385
tp27
a(F-1.1098955353675925e-16
F-0.39180581244561224
F-0.39180581244561219
tp28
a(F-1.2303427027786508e-16
F-0.55409709377719407
F-2.8724491187624152e-17
tp29
a(F-6.3007180126874523e-17
F-0.39180581244561224
F0.39180581244561224
tp30
a(F3.3928661615554573e-17
F-5.550428484801613e-17
F0.55409709377719418
tp31
a(F1.1098955353675925e-16
F0.39180581244561224
F0.39180581244561219
tp32
a(F1.2303427027786508e-16
F0.55409709377719407
F7.556202503899795e-17
tp33
a(F6.3007180126874523e-17
F0.39180581244561224
F-0.3918058124456123
tp34
a(F-3.3928661615554555e-17
F3.3928661615554567e-17
F-0.55409709377719385
tp35
a(F-1.1098955353675925e-16
F-0.39180581244561224
F-0.39180581244561219
tp36
assS'shapeNode0'
p37
(dp38
g4
(lp39
F-2
aF-1
aF0
aF1
aF2
aF3
aF4
aF5
aF6
aF7
aF8
aF9
aF10
asg6
I01
sg7
I3
sg8
I8
sg9
(lp40
(F-0.39180581244561219
F0.39180581244561236
F-6.3007180126874535e-17
tp41
a(F-0.55409709377719385
F1.5696293189341959e-16
F-8.9105608662310477e-17
tp42
a(F-0.3918058124456123
F-0.39180581244561213
F-6.3007180126874511e-17
tp43
a(F-1.5175876146548924e-16
F-0.55409709377719407
F-4.6192504879255346e-33
tp44
a(F0.39180581244561213
F-0.39180581244561236
F6.3007180126874523e-17
tp45
a(F0.55409709377719418
F-1.7853855512588122e-16
F8.9105608662310527e-17
tp46
a(F0.3918058124456123
F0.39180581244561213
F6.3007180126874511e-17
tp47
a(F1.9859629531686303e-16
F0.55409709377719407
F1.2151300392064573e-32
tp48
a(F-0.39180581244561219
F0.39180581244561236
F-6.3007180126874535e-17
tp49
a(F-0.55409709377719385
F1.5696293189341959e-16
F-8.9105608662310477e-17
tp50
a(F-0.3918058124456123
F-0.39180581244561213
F-6.3007180126874511e-17
tp51
ass.